target datalayout = "e-m:e-p270:32:32-p271:32:32-p272:64:64-i64:64-i128:128-f80:128-n8:16:32:64-S128"
target triple = "x86_64-pc-linux-gnu"

%"class.icu_77::MaybeStackArray" = type <{ ptr, i32, i8, [40 x i8], [3 x i8] }>
%"class.icu_77::StringPiece" = type <{ ptr, i32, [4 x i8] }>
%"class.icu_77::BytesTrieElement" = type { i32, i32 }
%"class.icu_77::CharString" = type { %"class.icu_77::MaybeStackArray", i32, [4 x i8] }
%"class.icu_77::BytesTrieBuilder" = type { %"class.icu_77::StringTrieBuilder", ptr, ptr, i32, i32, ptr, i32, i32 }
%"class.icu_77::StringTrieBuilder" = type { %"class.icu_77::UObject", ptr }
%"class.icu_77::UObject" = type { ptr }

; Function Attrs: mustprogress nounwind uwtable
define linkonce_odr noundef ptr @_ZNK6icu_7711StringPiece4dataEv(ptr noundef nonnull align 8 dereferenceable(12) %0) #0 comdat align 2 {
  %2 = alloca ptr, align 8
  store ptr %0, ptr %2, align 8, !tbaa !30
  %3 = load ptr, ptr %2, align 8
  %4 = getelementptr inbounds nuw %"class.icu_77::StringPiece", ptr %3, i32 0, i32 0
  %5 = load ptr, ptr %4, align 8, !tbaa !36
  ret ptr %5
}

; Function Attrs: mustprogress uwtable
define linkonce_odr noundef nonnull align 8 dereferenceable(60) ptr @_ZN6icu_7710CharString6appendENS_11StringPieceER10UErrorCode(ptr noundef nonnull align 8 dereferenceable(60) %0, ptr %1, i32 %2, ptr noundef nonnull align 4 dereferenceable(4) %3) #1 comdat align 2 {
  %5 = alloca %"class.icu_77::StringPiece", align 8
  %6 = alloca ptr, align 8
  %7 = alloca ptr, align 8
  %8 = getelementptr inbounds nuw { ptr, i32 }, ptr %5, i32 0, i32 0
  store ptr %1, ptr %8, align 8
  %9 = getelementptr inbounds nuw { ptr, i32 }, ptr %5, i32 0, i32 1
  store i32 %2, ptr %9, align 8
  store ptr %0, ptr %6, align 8, !tbaa !25
  store ptr %3, ptr %7, align 8, !tbaa !22
  %10 = load ptr, ptr %6, align 8
  %11 = call noundef ptr @_ZNK6icu_7711StringPiece4dataEv(ptr noundef nonnull align 8 dereferenceable(12) %5)
  %12 = call noundef i32 @_ZNK6icu_7711StringPiece6lengthEv(ptr noundef nonnull align 8 dereferenceable(12) %5)
  %13 = load ptr, ptr %7, align 8, !tbaa !22
  %14 = call noundef nonnull align 8 dereferenceable(60) ptr @_ZN6icu_7710CharString6appendEPKciR10UErrorCode(ptr noundef nonnull align 8 dereferenceable(60) %10, ptr noundef %11, i32 noundef %12, ptr noundef nonnull align 4 dereferenceable(4) %13)
  ret ptr %14
}

; Function Attrs: mustprogress nounwind uwtable
define linkonce_odr noundef i32 @_ZNK6icu_7710CharString6lengthEv(ptr noundef nonnull align 8 dereferenceable(60) %0) #0 comdat align 2 {
  %2 = alloca ptr, align 8
  store ptr %0, ptr %2, align 8, !tbaa !25
  %3 = load ptr, ptr %2, align 8
  %4 = getelementptr inbounds nuw %"class.icu_77::CharString", ptr %3, i32 0, i32 1
  %5 = load i32, ptr %4, align 8, !tbaa !34
  ret i32 %5
}

; Function Attrs: mustprogress nounwind uwtable
define linkonce_odr noundef i32 @_ZNK6icu_7711StringPiece6lengthEv(ptr noundef nonnull align 8 dereferenceable(12) %0) #0 comdat align 2 {
  %2 = alloca ptr, align 8
  store ptr %0, ptr %2, align 8, !tbaa !30
  %3 = load ptr, ptr %2, align 8
  %4 = getelementptr inbounds nuw %"class.icu_77::StringPiece", ptr %3, i32 0, i32 1
  %5 = load i32, ptr %4, align 8, !tbaa !32
  ret i32 %5
}

; Function Attrs: mustprogress uwtable
define void @_ZN6icu_7716BytesTrieElement5setToENS_11StringPieceEiRNS_10CharStringER10UErrorCode(ptr noundef nonnull align 4 dereferenceable(8) %0, ptr %1, i32 %2, i32 noundef %3, ptr noundef nonnull align 8 dereferenceable(60) %4, ptr noundef nonnull align 4 dereferenceable(4) %5) #1 align 2 {
  %7 = alloca %"class.icu_77::StringPiece", align 8
  %8 = alloca ptr, align 8
  %9 = alloca i32, align 4
  %10 = alloca ptr, align 8
  %11 = alloca ptr, align 8
  %12 = alloca i32, align 4
  %13 = alloca i32, align 4
  %14 = alloca i32, align 4
  %15 = alloca %"class.icu_77::StringPiece", align 8
  %16 = getelementptr inbounds nuw { ptr, i32 }, ptr %7, i32 0, i32 0
  store ptr %1, ptr %16, align 8
  %17 = getelementptr inbounds nuw { ptr, i32 }, ptr %7, i32 0, i32 1
  store i32 %2, ptr %17, align 8
  store ptr %0, ptr %8, align 8, !tbaa !23
  store i32 %3, ptr %9, align 4, !tbaa !14
  store ptr %4, ptr %10, align 8, !tbaa !25
  store ptr %5, ptr %11, align 8, !tbaa !22
  %18 = load ptr, ptr %8, align 8
  %19 = load ptr, ptr %11, align 8, !tbaa !22
  %20 = load i32, ptr %19, align 4, !tbaa !15
  %21 = call noundef signext i8 @_ZL9U_FAILURE10UErrorCode(i32 noundef %20)
  %22 = icmp ne i8 %21, 0
  br i1 %22, label %23, label %24

23:                                               ; preds = %6
  br label %63

24:                                               ; preds = %6
  call void @llvm.lifetime.start.p0(i64 4, ptr %12) #12
  %25 = call noundef i32 @_ZNK6icu_7711StringPiece6lengthEv(ptr noundef nonnull align 8 dereferenceable(12) %7)
  store i32 %25, ptr %12, align 4, !tbaa !14
  %26 = load i32, ptr %12, align 4, !tbaa !14
  %27 = icmp sgt i32 %26, 65535
  br i1 %27, label %28, label %30

28:                                               ; preds = %24
  %29 = load ptr, ptr %11, align 8, !tbaa !22
  store i32 8, ptr %29, align 4, !tbaa !15
  store i32 1, ptr %13, align 4
  br label %61

30:                                               ; preds = %24
  call void @llvm.lifetime.start.p0(i64 4, ptr %14) #12
  %31 = load ptr, ptr %10, align 8, !tbaa !25
  %32 = call noundef i32 @_ZNK6icu_7710CharString6lengthEv(ptr noundef nonnull align 8 dereferenceable(60) %31)
  store i32 %32, ptr %14, align 4, !tbaa !14
  %33 = load i32, ptr %12, align 4, !tbaa !14
  %34 = icmp sgt i32 %33, 255
  br i1 %34, label %35, label %44

35:                                               ; preds = %30
  %36 = load i32, ptr %14, align 4, !tbaa !14
  %37 = xor i32 %36, -1
  store i32 %37, ptr %14, align 4, !tbaa !14
  %38 = load ptr, ptr %10, align 8, !tbaa !25
  %39 = load i32, ptr %12, align 4, !tbaa !14
  %40 = ashr i32 %39, 8
  %41 = trunc i32 %40 to i8
  %42 = load ptr, ptr %11, align 8, !tbaa !22
  %43 = call noundef nonnull align 8 dereferenceable(60) ptr @_ZN6icu_7710CharString6appendEcR10UErrorCode(ptr noundef nonnull align 8 dereferenceable(60) %38, i8 noundef signext %41, ptr noundef nonnull align 4 dereferenceable(4) %42)
  br label %44

44:                                               ; preds = %35, %30
  %45 = load ptr, ptr %10, align 8, !tbaa !25
  %46 = load i32, ptr %12, align 4, !tbaa !14
  %47 = trunc i32 %46 to i8
  %48 = load ptr, ptr %11, align 8, !tbaa !22
  %49 = call noundef nonnull align 8 dereferenceable(60) ptr @_ZN6icu_7710CharString6appendEcR10UErrorCode(ptr noundef nonnull align 8 dereferenceable(60) %45, i8 noundef signext %47, ptr noundef nonnull align 4 dereferenceable(4) %48)
  %50 = load i32, ptr %14, align 4, !tbaa !14
  %51 = getelementptr inbounds nuw %"class.icu_77::BytesTrieElement", ptr %18, i32 0, i32 0
  store i32 %50, ptr %51, align 4, !tbaa !27
  %52 = load i32, ptr %9, align 4, !tbaa !14
  %53 = getelementptr inbounds nuw %"class.icu_77::BytesTrieElement", ptr %18, i32 0, i32 1
  store i32 %52, ptr %53, align 4, !tbaa !29
  %54 = load ptr, ptr %10, align 8, !tbaa !25
  call void @llvm.memcpy.p0.p0.i64(ptr align 8 %15, ptr align 8 %7, i64 16, i1 false)
  %55 = load ptr, ptr %11, align 8, !tbaa !22
  %56 = getelementptr inbounds nuw { ptr, i32 }, ptr %15, i32 0, i32 0
  %57 = load ptr, ptr %56, align 8
  %58 = getelementptr inbounds nuw { ptr, i32 }, ptr %15, i32 0, i32 1
  %59 = load i32, ptr %58, align 8
  %60 = call noundef nonnull align 8 dereferenceable(60) ptr @_ZN6icu_7710CharString6appendENS_11StringPieceER10UErrorCode(ptr noundef nonnull align 8 dereferenceable(60) %54, ptr %57, i32 %59, ptr noundef nonnull align 4 dereferenceable(4) %55)
  call void @llvm.lifetime.end.p0(i64 4, ptr %14) #12
  store i32 0, ptr %13, align 4
  br label %61

61:                                               ; preds = %44, %28
  call void @llvm.lifetime.end.p0(i64 4, ptr %12) #12
  %62 = load i32, ptr %13, align 4
  switch i32 %62, label %64 [
    i32 0, label %63
    i32 1, label %63
  ]

63:                                               ; preds = %23, %61, %61
  ret void

64:                                               ; preds = %61
  unreachable
}

; Function Attrs: inlinehint mustprogress nounwind uwtable
define internal noundef signext i8 @_ZL9U_FAILURE10UErrorCode(i32 noundef %0) #2 {
  %2 = alloca i32, align 4
  store i32 %0, ptr %2, align 4, !tbaa !15
  %3 = load i32, ptr %2, align 4, !tbaa !15
  %4 = icmp sgt i32 %3, 0
  %5 = zext i1 %4 to i8
  ret i8 %5
}

; Function Attrs: mustprogress uwtable
define noundef nonnull align 8 dereferenceable(56) ptr @_ZN6icu_7716BytesTrieBuilder3addENS_11StringPieceEiR10UErrorCode(ptr noundef nonnull align 8 dereferenceable(56) %0, ptr %1, i32 %2, i32 noundef %3, ptr noundef nonnull align 4 dereferenceable(4) %4) #1 align 2 {
  %6 = alloca ptr, align 8
  %7 = alloca %"class.icu_77::StringPiece", align 8
  %8 = alloca ptr, align 8
  %9 = alloca i32, align 4
  %10 = alloca ptr, align 8
  %11 = alloca i32, align 4
  %12 = alloca ptr, align 8
  %13 = alloca ptr, align 8
  %14 = alloca i64, align 8
  %15 = alloca i1, align 1
  %16 = alloca i32, align 4
  %17 = alloca %"class.icu_77::StringPiece", align 8
  %18 = getelementptr inbounds nuw { ptr, i32 }, ptr %7, i32 0, i32 0
  store ptr %1, ptr %18, align 8
  %19 = getelementptr inbounds nuw { ptr, i32 }, ptr %7, i32 0, i32 1
  store i32 %2, ptr %19, align 8
  store ptr %0, ptr %8, align 8, !tbaa !37
  store i32 %3, ptr %9, align 4, !tbaa !14
  store ptr %4, ptr %10, align 8, !tbaa !22
  %20 = load ptr, ptr %8, align 8
  %21 = load ptr, ptr %10, align 8, !tbaa !22
  %22 = load i32, ptr %21, align 4, !tbaa !15
  %23 = call noundef signext i8 @_ZL9U_FAILURE10UErrorCode(i32 noundef %22)
  %24 = icmp ne i8 %23, 0
  br i1 %24, label %25, label %26

25:                                               ; preds = %5
  store ptr %20, ptr %6, align 8
  br label %107

26:                                               ; preds = %5
  %27 = getelementptr inbounds nuw %"class.icu_77::BytesTrieBuilder", ptr %20, i32 0, i32 7
  %28 = load i32, ptr %27, align 4, !tbaa !51
  %29 = icmp sgt i32 %28, 0
  br i1 %29, label %30, label %32

30:                                               ; preds = %26
  %31 = load ptr, ptr %10, align 8, !tbaa !22
  store i32 30, ptr %31, align 4, !tbaa !15
  store ptr %20, ptr %6, align 8
  br label %107

32:                                               ; preds = %26
  %33 = getelementptr inbounds nuw %"class.icu_77::BytesTrieBuilder", ptr %20, i32 0, i32 4
  %34 = load i32, ptr %33, align 4, !tbaa !48
  %35 = getelementptr inbounds nuw %"class.icu_77::BytesTrieBuilder", ptr %20, i32 0, i32 3
  %36 = load i32, ptr %35, align 8, !tbaa !47
  %37 = icmp eq i32 %34, %36
  br i1 %37, label %38, label %91

38:                                               ; preds = %32
  call void @llvm.lifetime.start.p0(i64 4, ptr %11) #12
  %39 = getelementptr inbounds nuw %"class.icu_77::BytesTrieBuilder", ptr %20, i32 0, i32 3
  %40 = load i32, ptr %39, align 8, !tbaa !47
  %41 = icmp eq i32 %40, 0
  br i1 %41, label %42, label %43

42:                                               ; preds = %38
  store i32 1024, ptr %11, align 4, !tbaa !14
  br label %47

43:                                               ; preds = %38
  %44 = getelementptr inbounds nuw %"class.icu_77::BytesTrieBuilder", ptr %20, i32 0, i32 3
  %45 = load i32, ptr %44, align 8, !tbaa !47
  %46 = mul nsw i32 4, %45
  store i32 %46, ptr %11, align 4, !tbaa !14
  br label %47

47:                                               ; preds = %43, %42
  call void @llvm.lifetime.start.p0(i64 8, ptr %12) #12
  %48 = load i32, ptr %11, align 4, !tbaa !14
  %49 = sext i32 %48 to i64
  %50 = call { i64, i1 } @llvm.umul.with.overflow.i64(i64 %49, i64 8)
  %51 = extractvalue { i64, i1 } %50, 1
  %52 = extractvalue { i64, i1 } %50, 0
  %53 = select i1 %51, i64 -1, i64 %52
  %54 = call noundef ptr @_ZN6icu_777UMemorynaEm(i64 noundef %53) #12
  %55 = icmp eq ptr %54, null
  store i1 false, ptr %15, align 1
  br i1 %55, label %57, label %56

56:                                               ; preds = %47
  store ptr %54, ptr %13, align 8
  store i64 %53, ptr %14, align 8
  store i1 true, ptr %15, align 1
  br label %57

57:                                               ; preds = %56, %47
  %58 = phi ptr [ %54, %56 ], [ null, %47 ]
  store ptr %58, ptr %12, align 8, !tbaa !23
  %59 = load ptr, ptr %12, align 8, !tbaa !23
  %60 = icmp eq ptr %59, null
  br i1 %60, label %61, label %63

61:                                               ; preds = %57
  %62 = load ptr, ptr %10, align 8, !tbaa !22
  store i32 7, ptr %62, align 4, !tbaa !15
  store ptr %20, ptr %6, align 8
  store i32 1, ptr %16, align 4
  br label %88

63:                                               ; preds = %57
  %64 = getelementptr inbounds nuw %"class.icu_77::BytesTrieBuilder", ptr %20, i32 0, i32 4
  %65 = load i32, ptr %64, align 4, !tbaa !48
  %66 = icmp sgt i32 %65, 0
  br i1 %66, label %67, label %78

67:                                               ; preds = %63
  br label %68

68:                                               ; preds = %67
  %69 = load ptr, ptr %12, align 8, !tbaa !23
  %70 = getelementptr inbounds nuw %"class.icu_77::BytesTrieBuilder", ptr %20, i32 0, i32 2
  %71 = load ptr, ptr %70, align 8, !tbaa !46
  %72 = getelementptr inbounds nuw %"class.icu_77::BytesTrieBuilder", ptr %20, i32 0, i32 4
  %73 = load i32, ptr %72, align 4, !tbaa !48
  %74 = sext i32 %73 to i64
  %75 = mul i64 %74, 8
  call void @llvm.memcpy.p0.p0.i64(ptr align 4 %69, ptr align 4 %71, i64 %75, i1 false)
  br label %76

76:                                               ; preds = %68
  br label %77

77:                                               ; preds = %76
  br label %78

78:                                               ; preds = %77, %63
  %79 = getelementptr inbounds nuw %"class.icu_77::BytesTrieBuilder", ptr %20, i32 0, i32 2
  %80 = load ptr, ptr %79, align 8, !tbaa !46
  %81 = icmp eq ptr %80, null
  br i1 %81, label %83, label %82

82:                                               ; preds = %78
  call void @_ZN6icu_777UMemorydaEPv(ptr noundef %80) #12
  br label %83

83:                                               ; preds = %82, %78
  %84 = load ptr, ptr %12, align 8, !tbaa !23
  %85 = getelementptr inbounds nuw %"class.icu_77::BytesTrieBuilder", ptr %20, i32 0, i32 2
  store ptr %84, ptr %85, align 8, !tbaa !46
  %86 = load i32, ptr %11, align 4, !tbaa !14
  %87 = getelementptr inbounds nuw %"class.icu_77::BytesTrieBuilder", ptr %20, i32 0, i32 3
  store i32 %86, ptr %87, align 8, !tbaa !47
  store i32 0, ptr %16, align 4
  br label %88

88:                                               ; preds = %83, %61
  call void @llvm.lifetime.end.p0(i64 8, ptr %12) #12
  call void @llvm.lifetime.end.p0(i64 4, ptr %11) #12
  %89 = load i32, ptr %16, align 4
  switch i32 %89, label %109 [
    i32 0, label %90
    i32 1, label %107
  ]

90:                                               ; preds = %88
  br label %91

91:                                               ; preds = %90, %32
  %92 = getelementptr inbounds nuw %"class.icu_77::BytesTrieBuilder", ptr %20, i32 0, i32 2
  %93 = load ptr, ptr %92, align 8, !tbaa !46
  %94 = getelementptr inbounds nuw %"class.icu_77::BytesTrieBuilder", ptr %20, i32 0, i32 4
  %95 = load i32, ptr %94, align 4, !tbaa !48
  %96 = add nsw i32 %95, 1
  store i32 %96, ptr %94, align 4, !tbaa !48
  %97 = sext i32 %95 to i64
  %98 = getelementptr inbounds %"class.icu_77::BytesTrieElement", ptr %93, i64 %97
  call void @llvm.memcpy.p0.p0.i64(ptr align 8 %17, ptr align 8 %7, i64 16, i1 false)
  %99 = load i32, ptr %9, align 4, !tbaa !14
  %100 = getelementptr inbounds nuw %"class.icu_77::BytesTrieBuilder", ptr %20, i32 0, i32 1
  %101 = load ptr, ptr %100, align 8, !tbaa !41
  %102 = load ptr, ptr %10, align 8, !tbaa !22
  %103 = getelementptr inbounds nuw { ptr, i32 }, ptr %17, i32 0, i32 0
  %104 = load ptr, ptr %103, align 8
  %105 = getelementptr inbounds nuw { ptr, i32 }, ptr %17, i32 0, i32 1
  %106 = load i32, ptr %105, align 8
  call void @_ZN6icu_7716BytesTrieElement5setToENS_11StringPieceEiRNS_10CharStringER10UErrorCode(ptr noundef nonnull align 4 dereferenceable(8) %98, ptr %104, i32 %106, i32 noundef %99, ptr noundef nonnull align 8 dereferenceable(60) %101, ptr noundef nonnull align 4 dereferenceable(4) %102)
  store ptr %20, ptr %6, align 8
  br label %107

107:                                              ; preds = %91, %88, %30, %25
  %108 = load ptr, ptr %6, align 8
  ret ptr %108

109:                                              ; preds = %88
  unreachable
}