; Function Attrs: mustprogress uwtable
define noundef nonnull align 8 dereferenceable(56) ptr @_ZN6icu_7716BytesTrieBuilder3addENS_11StringPieceEiR10UErrorCode(ptr noundef nonnull returned align 8 dereferenceable(56) %0, ptr %1, i32 %2, i32 noundef %3, ptr noundef nonnull align 4 dereferenceable(4) %4) local_unnamed_addr #1 align 2 {
  %6 = load i32, ptr %4, align 4, !tbaa !13
  %7 = icmp slt i32 %6, 1
  br i1 %7, label %8, label %_ZN6icu_7716BytesTrieElement5setToENS_11StringPieceEiRNS_10CharStringER10UErrorCode.exit

8:                                                ; preds = %5
  %9 = getelementptr inbounds nuw i8, ptr %0, i64 52
  %10 = load i32, ptr %9, align 4, !tbaa !32
  %11 = icmp sgt i32 %10, 0
  br i1 %11, label %12, label %13

12:                                               ; preds = %8
  store i32 30, ptr %4, align 4, !tbaa !13
  br label %_ZN6icu_7716BytesTrieElement5setToENS_11StringPieceEiRNS_10CharStringER10UErrorCode.exit

13:                                               ; preds = %8
  %14 = getelementptr inbounds nuw i8, ptr %0, i64 36
  %15 = load i32, ptr %14, align 4, !tbaa !33
  %16 = getelementptr inbounds nuw i8, ptr %0, i64 32
  %17 = load i32, ptr %16, align 8, !tbaa !34
  %18 = icmp eq i32 %15, %17
  br i1 %18, label %22, label %.thread23

.thread23:                                        ; preds = %13
  %.phi.trans.insert = getelementptr inbounds nuw i8, ptr %0, i64 24
  %.pre = load ptr, ptr %.phi.trans.insert, align 8, !tbaa !30
  %19 = add nsw i32 %15, 1
  store i32 %19, ptr %14, align 4, !tbaa !33
  %20 = sext i32 %15 to i64
  %21 = getelementptr inbounds %"class.icu_77::BytesTrieElement", ptr %.pre, i64 %20
  br label %50

22:                                               ; preds = %13
  %23 = icmp eq i32 %15, 0
  %24 = shl nsw i32 %15, 2
  %.014 = select i1 %23, i32 1024, i32 %24
  %25 = sext i32 %.014 to i64
  %26 = icmp slt i32 %.014, 0
  %27 = shl nsw i64 %25, 3
  %28 = select i1 %26, i64 -1, i64 %27
  %29 = tail call noundef ptr @_ZN6icu_777UMemorynaEm(i64 noundef %28) #19
  %30 = icmp eq ptr %29, null
  br i1 %30, label %44, label %31

31:                                               ; preds = %22
  %32 = load i32, ptr %14, align 4, !tbaa !33
  %33 = icmp sgt i32 %32, 0
  br i1 %33, label %34, label %39

34:                                               ; preds = %31
  %35 = getelementptr inbounds nuw i8, ptr %0, i64 24
  %36 = load ptr, ptr %35, align 8, !tbaa !30
  %37 = zext nneg i32 %32 to i64
  %38 = shl nuw nsw i64 %37, 3
  tail call void @llvm.memcpy.p0.p0.i64(ptr nonnull align 4 %29, ptr align 4 %36, i64 %38, i1 false)
  br label %39

39:                                               ; preds = %34, %31
  %40 = getelementptr inbounds nuw i8, ptr %0, i64 24
  %41 = load ptr, ptr %40, align 8, !tbaa !30
  %42 = icmp eq ptr %41, null
  br i1 %42, label %45, label %43

43:                                               ; preds = %39
  tail call void @_ZN6icu_777UMemorydaEPv(ptr noundef nonnull %41) #19
  br label %45

44:                                               ; preds = %22
  store i32 7, ptr %4, align 4, !tbaa !13
  br label %_ZN6icu_7716BytesTrieElement5setToENS_11StringPieceEiRNS_10CharStringER10UErrorCode.exit

45:                                               ; preds = %43, %39
  store ptr %29, ptr %40, align 8, !tbaa !30
  store i32 %.014, ptr %16, align 8, !tbaa !34
  %.pre21 = load i32, ptr %14, align 4, !tbaa !33
  %.pre22 = load i32, ptr %4, align 4, !tbaa !13
  %46 = add nsw i32 %.pre21, 1
  store i32 %46, ptr %14, align 4, !tbaa !33
  %47 = sext i32 %.pre21 to i64
  %48 = getelementptr inbounds %"class.icu_77::BytesTrieElement", ptr %29, i64 %47
  %49 = icmp slt i32 %.pre22, 1
  br i1 %49, label %50, label %_ZN6icu_7716BytesTrieElement5setToENS_11StringPieceEiRNS_10CharStringER10UErrorCode.exit

50:                                               ; preds = %.thread23, %45
  %51 = phi ptr [ %21, %.thread23 ], [ %48, %45 ]
  %.in = getelementptr inbounds nuw i8, ptr %0, i64 16
  %52 = load ptr, ptr %.in, align 8, !tbaa !23
  %53 = icmp sgt i32 %2, 65535
  br i1 %53, label %54, label %55

54:                                               ; preds = %50
  store i32 8, ptr %4, align 4, !tbaa !13
  br label %_ZN6icu_7716BytesTrieElement5setToENS_11StringPieceEiRNS_10CharStringER10UErrorCode.exit

55:                                               ; preds = %50
  %56 = getelementptr inbounds nuw i8, ptr %52, i64 56
  %57 = load i32, ptr %56, align 8, !tbaa !15
  %58 = icmp sgt i32 %2, 255
  br i1 %58, label %59, label %64

59:                                               ; preds = %55
  %60 = xor i32 %57, -1
  %61 = lshr i32 %2, 8
  %62 = trunc i32 %61 to i8
  %63 = tail call noundef nonnull align 8 dereferenceable(60) ptr @_ZN6icu_7710CharString6appendEcR10UErrorCode(ptr noundef nonnull align 8 dereferenceable(60) %52, i8 noundef signext %62, ptr noundef nonnull align 4 dereferenceable(4) %4)
  br label %64

64:                                               ; preds = %59, %55
  %.0.i = phi i32 [ %60, %59 ], [ %57, %55 ]
  %65 = trunc i32 %2 to i8
  %66 = tail call noundef nonnull align 8 dereferenceable(60) ptr @_ZN6icu_7710CharString6appendEcR10UErrorCode(ptr noundef nonnull align 8 dereferenceable(60) %52, i8 noundef signext %65, ptr noundef nonnull align 4 dereferenceable(4) %4)
  store i32 %.0.i, ptr %51, align 4, !tbaa !17
  %67 = getelementptr inbounds nuw i8, ptr %51, i64 4
  store i32 %3, ptr %67, align 4, !tbaa !19
  %68 = tail call noundef nonnull align 8 dereferenceable(60) ptr @_ZN6icu_7710CharString6appendEPKciR10UErrorCode(ptr noundef nonnull align 8 dereferenceable(60) %52, ptr noundef %1, i32 noundef %2, ptr noundef nonnull align 4 dereferenceable(4) %4)
  br label %_ZN6icu_7716BytesTrieElement5setToENS_11StringPieceEiRNS_10CharStringER10UErrorCode.exit

_ZN6icu_7716BytesTrieElement5setToENS_11StringPieceEiRNS_10CharStringER10UErrorCode.exit: ; preds = %64, %54, %45, %44, %5, %12
  ret ptr %0
}